	.file	"Cross-Platform.cpp"
	.text
	.section	.text._ZNSt11char_traitsIcE6lengthEPKc,"axG",@progbits,_ZNSt11char_traitsIcE6lengthEPKc,comdat
	.weak	_ZNSt11char_traitsIcE6lengthEPKc
	.type	_ZNSt11char_traitsIcE6lengthEPKc, @function
_ZNSt11char_traitsIcE6lengthEPKc:
.LFB116:
	.cfi_startproc
	pushq	%rbp
	.cfi_def_cfa_offset 16
	.cfi_offset 6, -16
	movq	%rsp, %rbp
	.cfi_def_cfa_register 6
	subq	$16, %rsp
	movq	%rdi, -8(%rbp)
	movl	$0, %eax
	testb	%al, %al
	je	.L3
	movq	-8(%rbp), %rax
	movq	%rax, %rdi
	call	_ZN9__gnu_cxx11char_traitsIcE6lengthEPKc
	jmp	.L4
.L3:
	movq	-8(%rbp), %rax
	movq	%rax, %rdi
	call	strlen@PLT
	nop
.L4:
	leave
	.cfi_def_cfa 7, 8
	ret
	.cfi_endproc
.LFE116:
	.size	_ZNSt11char_traitsIcE6lengthEPKc, .-_ZNSt11char_traitsIcE6lengthEPKc
#APP
	.globl _ZSt21ios_base_library_initv
#NO_APP
	.text
	.globl	_Z13getConclusioniii
	.type	_Z13getConclusioniii, @function
_Z13getConclusioniii:
.LFB2142:
	.cfi_startproc
	pushq	%rbp
	.cfi_def_cfa_offset 16
	.cfi_offset 6, -16
	movq	%rsp, %rbp
	.cfi_def_cfa_register 6
	movl	%edi, -20(%rbp)
	movl	%esi, -24(%rbp)
	movl	%edx, -28(%rbp)
	movl	-20(%rbp), %edx
	movl	-24(%rbp), %eax
	addl	%edx, %eax
	subl	-28(%rbp), %eax
	movl	%eax, -4(%rbp)
	movl	-4(%rbp), %eax
	popq	%rbp
	.cfi_def_cfa 7, 8
	ret
	.cfi_endproc
.LFE2142:
	.size	_Z13getConclusioniii, .-_Z13getConclusioniii
	.section	.rodata
.LC0:
	.string	"bill.txt"
.LC1:
	.string	"CarParkManagementSystem.txt"
.LC3:
	.string	"XX XXX XX"
.LC4:
	.string	"Car Park Management System"
.LC5:
	.string	"Enter Password for user-1. "
	.align 8
.LC6:
	.string	"Invalid password. Please try again. "
	.align 8
.LC7:
	.string	"Choose the system program mode. Type 1 for bill system, 2 for car park management system and 3 to quit. "
	.align 8
.LC8:
	.string	"Price for Cars stayed in the park: "
	.align 8
.LC9:
	.string	"1 hour or less => free\n1-2 hours => 5 USD\n2-3 hours => 7 USD\n3-4 hours => 10 USD\n4-5 hours => 15 USD\nMore than 5 hours => 20 USD\n"
	.align 8
.LC10:
	.string	"Car no: 1. Please enter the plate text of vehicle. "
	.align 8
.LC11:
	.string	"Please enter the time vehicle stayed in the park. Use the format: X.XX"
.LC17:
	.string	"Vehicle: "
.LC18:
	.string	"\nPrice: "
.LC19:
	.string	"\n\n"
	.align 8
.LC20:
	.string	"Do you want to continue the process? Type 1 for yes, 0 for no. "
.LC21:
	.string	"Process ended. "
	.align 8
.LC22:
	.string	"Bill saved in the direct location of C++ program. "
.LC23:
	.string	"Hour: "
	.align 8
.LC24:
	.string	". Type the count of vehicles entered this hour. "
	.align 8
.LC25:
	.string	"Invalid value. Please type again. "
.LC26:
	.string	"Hour "
	.align 8
.LC27:
	.string	". Type the count of vehicles quitted this hour. "
.LC28:
	.string	"There are "
.LC29:
	.string	" cars inside the car park. "
.LC30:
	.string	"\nVehicle Count: "
.LC31:
	.string	"Car Park is full. "
.LC32:
	.string	"Car park is full. Day: "
.LC33:
	.string	", Hour: "
.LC34:
	.string	"\n"
	.align 8
.LC35:
	.string	"Car park is almost full. Day: "
	.align 8
.LC36:
	.string	"Half of the car park is full. Day: "
	.align 8
.LC37:
	.string	"Quarter of the car park is full. Day: "
	.align 8
.LC38:
	.string	"Less than the quarter of the car park is full. Day: "
.LC39:
	.string	"Car park is empty. "
.LC40:
	.string	"Car park is empty. Day: "
.LC41:
	.string	"Day: "
	.align 8
.LC42:
	.string	". Vehicles inside the car park: "
.LC43:
	.string	"\nThere are "
	.align 8
.LC44:
	.string	" vehicles inside the car park. "
.LC45:
	.string	"Week ended. Vehicle count: "
.LC46:
	.string	". "
.LC47:
	.string	"Week 1 ended. There are "
	.text
	.globl	_Z12mainFunctionv
	.type	_Z12mainFunctionv, @function
_Z12mainFunctionv:
.LFB2143:
	.cfi_startproc
	.cfi_personality 0x9b,DW.ref.__gxx_personality_v0
	.cfi_lsda 0x1b,.LLSDA2143
	pushq	%rbp
	.cfi_def_cfa_offset 16
	.cfi_offset 6, -16
	movq	%rsp, %rbp
	.cfi_def_cfa_register 6
	pushq	%rbx
	subq	$1160, %rsp
	.cfi_offset 3, -24
	leaq	-592(%rbp), %rax
	movq	%rax, %rdi
.LEHB0:
	call	_ZNSt14basic_ofstreamIcSt11char_traitsIcEEC1Ev@PLT
.LEHE0:
	leaq	-592(%rbp), %rax
	movl	$1, %edx
	leaq	.LC0(%rip), %rcx
	movq	%rcx, %rsi
	movq	%rax, %rdi
.LEHB1:
	call	_ZNSt14basic_ofstreamIcSt11char_traitsIcEE4openEPKcSt13_Ios_Openmode@PLT
	leaq	-1104(%rbp), %rax
	movq	%rax, %rdi
	call	_ZNSt14basic_ofstreamIcSt11char_traitsIcEEC1Ev@PLT
.LEHE1:
	leaq	-1104(%rbp), %rax
	movl	$1, %edx
	leaq	.LC1(%rip), %rcx
	movq	%rcx, %rsi
	movq	%rax, %rdi
.LEHB2:
	call	_ZNSt14basic_ofstreamIcSt11char_traitsIcEE4openEPKcSt13_Ios_Openmode@PLT
	leaq	_ZSt3cin(%rip), %rax
	movq	%rax, %rdi
	call	_ZNSi6ignoreEv@PLT
.LEHE2:
	movl	$123456789, -36(%rbp)
	movl	$7, -40(%rbp)
	movl	$24, -44(%rbp)
	movl	$100, -48(%rbp)
	movl	$0, -52(%rbp)
	movl	$0, -1108(%rbp)
	movl	$0, -20(%rbp)
	movl	$0, -1112(%rbp)
	movl	$0, -1116(%rbp)
	movl	$0, -24(%rbp)
	movl	$0, -1120(%rbp)
	pxor	%xmm0, %xmm0
	movss	%xmm0, -1124(%rbp)
	movb	$0, -1125(%rbp)
	leaq	-65(%rbp), %rax
	movq	%rax, -64(%rbp)
	nop
	nop
	leaq	-65(%rbp), %rdx
	leaq	-1168(%rbp), %rax
	leaq	.LC3(%rip), %rcx
	movq	%rcx, %rsi
	movq	%rax, %rdi
.LEHB3:
	call	_ZNSt7__cxx1112basic_stringIcSt11char_traitsIcESaIcEEC1IS3_EEPKcRKS3_
.LEHE3:
	leaq	-65(%rbp), %rax
	movq	%rax, %rdi
	call	_ZNSt15__new_allocatorIcED2Ev
	nop
	leaq	.LC4(%rip), %rax
	movq	%rax, %rsi
	leaq	_ZSt4cout(%rip), %rax
	movq	%rax, %rdi
.LEHB4:
	call	_ZStlsISt11char_traitsIcEERSt13basic_ostreamIcT_ES5_PKc@PLT
	movq	_ZSt4endlIcSt11char_traitsIcEERSt13basic_ostreamIT_T0_ES6_@GOTPCREL(%rip), %rdx
	movq	%rdx, %rsi
	movq	%rax, %rdi
	call	_ZNSolsEPFRSoS_E@PLT
.L10:
	leaq	.LC5(%rip), %rax
	movq	%rax, %rsi
	leaq	_ZSt4cout(%rip), %rax
	movq	%rax, %rdi
	call	_ZStlsISt11char_traitsIcEERSt13basic_ostreamIcT_ES5_PKc@PLT
	movq	_ZSt4endlIcSt11char_traitsIcEERSt13basic_ostreamIT_T0_ES6_@GOTPCREL(%rip), %rdx
	movq	%rdx, %rsi
	movq	%rax, %rdi
	call	_ZNSolsEPFRSoS_E@PLT
	leaq	-1108(%rbp), %rax
	movq	%rax, %rsi
	leaq	_ZSt3cin(%rip), %rax
	movq	%rax, %rdi
	call	_ZNSirsERi@PLT
	movl	-1108(%rbp), %eax
	cmpl	$123456789, %eax
	jne	.L8
	jmp	.L9
.L8:
	leaq	.LC6(%rip), %rax
	movq	%rax, %rsi
	leaq	_ZSt4cout(%rip), %rax
	movq	%rax, %rdi
	call	_ZStlsISt11char_traitsIcEERSt13basic_ostreamIcT_ES5_PKc@PLT
	movq	_ZSt4endlIcSt11char_traitsIcEERSt13basic_ostreamIT_T0_ES6_@GOTPCREL(%rip), %rdx
	movq	%rdx, %rsi
	movq	%rax, %rdi
	call	_ZNSolsEPFRSoS_E@PLT
	jmp	.L10
.L9:
	leaq	.LC7(%rip), %rax
	movq	%rax, %rsi
	leaq	_ZSt4cout(%rip), %rax
	movq	%rax, %rdi
	call	_ZStlsISt11char_traitsIcEERSt13basic_ostreamIcT_ES5_PKc@PLT
	movq	_ZSt4endlIcSt11char_traitsIcEERSt13basic_ostreamIT_T0_ES6_@GOTPCREL(%rip), %rdx
	movq	%rdx, %rsi
	movq	%rax, %rdi
	call	_ZNSolsEPFRSoS_E@PLT
	leaq	-1120(%rbp), %rax
	movq	%rax, %rsi
	leaq	_ZSt3cin(%rip), %rax
	movq	%rax, %rdi
	call	_ZNSirsERi@PLT
	movl	-1120(%rbp), %eax
	cmpl	$3, %eax
	je	.L71
	movl	-1120(%rbp), %eax
	cmpl	$1, %eax
	je	.L13
	cmpl	$2, %eax
	je	.L14
	jmp	.L15
.L13:
	leaq	.LC8(%rip), %rax
	movq	%rax, %rsi
	leaq	_ZSt4cout(%rip), %rax
	movq	%rax, %rdi
	call	_ZStlsISt11char_traitsIcEERSt13basic_ostreamIcT_ES5_PKc@PLT
	movq	_ZSt4endlIcSt11char_traitsIcEERSt13basic_ostreamIT_T0_ES6_@GOTPCREL(%rip), %rdx
	movq	%rdx, %rsi
	movq	%rax, %rdi
	call	_ZNSolsEPFRSoS_E@PLT
	leaq	.LC9(%rip), %rax
	movq	%rax, %rsi
	leaq	_ZSt4cout(%rip), %rax
	movq	%rax, %rdi
	call	_ZStlsISt11char_traitsIcEERSt13basic_ostreamIcT_ES5_PKc@PLT
.L33:
	leaq	.LC10(%rip), %rax
	movq	%rax, %rsi
	leaq	_ZSt4cout(%rip), %rax
	movq	%rax, %rdi
	call	_ZStlsISt11char_traitsIcEERSt13basic_ostreamIcT_ES5_PKc@PLT
	movq	_ZSt4endlIcSt11char_traitsIcEERSt13basic_ostreamIT_T0_ES6_@GOTPCREL(%rip), %rdx
	movq	%rdx, %rsi
	movq	%rax, %rdi
	call	_ZNSolsEPFRSoS_E@PLT
	leaq	-1168(%rbp), %rax
	movq	%rax, %rsi
	leaq	_ZSt3cin(%rip), %rax
	movq	%rax, %rdi
	call	_ZSt7getlineIcSt11char_traitsIcESaIcEERSt13basic_istreamIT_T0_ES7_RNSt7__cxx1112basic_stringIS4_S5_T1_EE@PLT
	leaq	.LC11(%rip), %rax
	movq	%rax, %rsi
	leaq	_ZSt4cout(%rip), %rax
	movq	%rax, %rdi
	call	_ZStlsISt11char_traitsIcEERSt13basic_ostreamIcT_ES5_PKc@PLT
	movq	_ZSt4endlIcSt11char_traitsIcEERSt13basic_ostreamIT_T0_ES6_@GOTPCREL(%rip), %rdx
	movq	%rdx, %rsi
	movq	%rax, %rdi
	call	_ZNSolsEPFRSoS_E@PLT
	leaq	-1124(%rbp), %rax
	movq	%rax, %rsi
	leaq	_ZSt3cin(%rip), %rax
	movq	%rax, %rdi
	call	_ZNSirsERf@PLT
	movss	-1124(%rbp), %xmm1
	movss	.LC12(%rip), %xmm0
	comiss	%xmm1, %xmm0
	jbe	.L67
	movl	$0, -20(%rbp)
	jmp	.L18
.L67:
	movss	-1124(%rbp), %xmm0
	movss	.LC12(%rip), %xmm1
	comiss	%xmm1, %xmm0
	jbe	.L19
	movss	-1124(%rbp), %xmm1
	movss	.LC13(%rip), %xmm0
	comiss	%xmm1, %xmm0
	jbe	.L19
	movl	$5, -20(%rbp)
	jmp	.L18
.L19:
	movss	-1124(%rbp), %xmm0
	comiss	.LC13(%rip), %xmm0
	jbe	.L22
	movss	-1124(%rbp), %xmm1
	movss	.LC14(%rip), %xmm0
	comiss	%xmm1, %xmm0
	jbe	.L22
	movl	$7, -20(%rbp)
	jmp	.L18
.L22:
	movss	-1124(%rbp), %xmm0
	comiss	.LC14(%rip), %xmm0
	jbe	.L25
	movss	-1124(%rbp), %xmm1
	movss	.LC15(%rip), %xmm0
	comiss	%xmm1, %xmm0
	jbe	.L25
	movl	$10, -20(%rbp)
	jmp	.L18
.L25:
	movss	-1124(%rbp), %xmm0
	comiss	.LC15(%rip), %xmm0
	jbe	.L28
	movss	-1124(%rbp), %xmm1
	movss	.LC16(%rip), %xmm0
	comiss	%xmm1, %xmm0
	jbe	.L28
	movl	$15, -20(%rbp)
	jmp	.L18
.L28:
	movl	$20, -20(%rbp)
.L18:
	leaq	-592(%rbp), %rax
	leaq	.LC17(%rip), %rdx
	movq	%rdx, %rsi
	movq	%rax, %rdi
	call	_ZStlsISt11char_traitsIcEERSt13basic_ostreamIcT_ES5_PKc@PLT
	movq	%rax, %rdx
	leaq	-1168(%rbp), %rax
	movq	%rax, %rsi
	movq	%rdx, %rdi
	call	_ZStlsIcSt11char_traitsIcESaIcEERSt13basic_ostreamIT_T0_ES7_RKNSt7__cxx1112basic_stringIS4_S5_T1_EE@PLT
	movq	%rax, %rdx
	leaq	.LC18(%rip), %rax
	movq	%rax, %rsi
	movq	%rdx, %rdi
	call	_ZStlsISt11char_traitsIcEERSt13basic_ostreamIcT_ES5_PKc@PLT
	movq	%rax, %rdx
	movl	-20(%rbp), %eax
	movl	%eax, %esi
	movq	%rdx, %rdi
	call	_ZNSolsEi@PLT
	movq	%rax, %rdx
	leaq	.LC19(%rip), %rax
	movq	%rax, %rsi
	movq	%rdx, %rdi
	call	_ZStlsISt11char_traitsIcEERSt13basic_ostreamIcT_ES5_PKc@PLT
	leaq	.LC20(%rip), %rax
	movq	%rax, %rsi
	leaq	_ZSt4cout(%rip), %rax
	movq	%rax, %rdi
	call	_ZStlsISt11char_traitsIcEERSt13basic_ostreamIcT_ES5_PKc@PLT
	movq	_ZSt4endlIcSt11char_traitsIcEERSt13basic_ostreamIT_T0_ES6_@GOTPCREL(%rip), %rdx
	movq	%rdx, %rsi
	movq	%rax, %rdi
	call	_ZNSolsEPFRSoS_E@PLT
	leaq	-1125(%rbp), %rax
	movq	%rax, %rsi
	leaq	_ZSt3cin(%rip), %rax
	movq	%rax, %rdi
	call	_ZNSirsERb@PLT
	movzbl	-1125(%rbp), %eax
	movzbl	%al, %eax
	testl	%eax, %eax
	jne	.L33
	leaq	.LC21(%rip), %rax
	movq	%rax, %rsi
	leaq	_ZSt4cout(%rip), %rax
	movq	%rax, %rdi
	call	_ZStlsISt11char_traitsIcEERSt13basic_ostreamIcT_ES5_PKc@PLT
	movq	_ZSt4endlIcSt11char_traitsIcEERSt13basic_ostreamIT_T0_ES6_@GOTPCREL(%rip), %rdx
	movq	%rdx, %rsi
	movq	%rax, %rdi
	call	_ZNSolsEPFRSoS_E@PLT
	leaq	.LC22(%rip), %rax
	movq	%rax, %rsi
	leaq	_ZSt4cout(%rip), %rax
	movq	%rax, %rdi
	call	_ZStlsISt11char_traitsIcEERSt13basic_ostreamIcT_ES5_PKc@PLT
	movq	_ZSt4endlIcSt11char_traitsIcEERSt13basic_ostreamIT_T0_ES6_@GOTPCREL(%rip), %rdx
	movq	%rdx, %rsi
	movq	%rax, %rdi
	call	_ZNSolsEPFRSoS_E@PLT
	jmp	.L15
.L14:
	movl	$0, -28(%rbp)
	jmp	.L34
.L47:
	movl	$0, -32(%rbp)
	jmp	.L35
.L38:
	leaq	.LC23(%rip), %rax
	movq	%rax, %rsi
	leaq	_ZSt4cout(%rip), %rax
	movq	%rax, %rdi
	call	_ZStlsISt11char_traitsIcEERSt13basic_ostreamIcT_ES5_PKc@PLT
	movq	%rax, %rdx
	movl	-32(%rbp), %eax
	addl	$1, %eax
	movl	%eax, %esi
	movq	%rdx, %rdi
	call	_ZNSolsEi@PLT
	movq	%rax, %rdx
	leaq	.LC24(%rip), %rax
	movq	%rax, %rsi
	movq	%rdx, %rdi
	call	_ZStlsISt11char_traitsIcEERSt13basic_ostreamIcT_ES5_PKc@PLT
	movq	_ZSt4endlIcSt11char_traitsIcEERSt13basic_ostreamIT_T0_ES6_@GOTPCREL(%rip), %rdx
	movq	%rdx, %rsi
	movq	%rax, %rdi
	call	_ZNSolsEPFRSoS_E@PLT
	leaq	-1112(%rbp), %rax
	movq	%rax, %rsi
	leaq	_ZSt3cin(%rip), %rax
	movq	%rax, %rdi
	call	_ZNSirsERi@PLT
	movl	-1112(%rbp), %eax
	cmpl	$100, %eax
	jg	.L36
	movl	-1112(%rbp), %eax
	testl	%eax, %eax
	jns	.L37
.L36:
	leaq	.LC25(%rip), %rax
	movq	%rax, %rsi
	leaq	_ZSt4cout(%rip), %rax
	movq	%rax, %rdi
	call	_ZStlsISt11char_traitsIcEERSt13basic_ostreamIcT_ES5_PKc@PLT
	movq	_ZSt4endlIcSt11char_traitsIcEERSt13basic_ostreamIT_T0_ES6_@GOTPCREL(%rip), %rdx
	movq	%rdx, %rsi
	movq	%rax, %rdi
	call	_ZNSolsEPFRSoS_E@PLT
	jmp	.L38
.L37:
	leaq	.LC26(%rip), %rax
	movq	%rax, %rsi
	leaq	_ZSt4cout(%rip), %rax
	movq	%rax, %rdi
	call	_ZStlsISt11char_traitsIcEERSt13basic_ostreamIcT_ES5_PKc@PLT
	movq	%rax, %rdx
	movl	-32(%rbp), %eax
	addl	$1, %eax
	movl	%eax, %esi
	movq	%rdx, %rdi
	call	_ZNSolsEi@PLT
	movq	%rax, %rdx
	leaq	.LC27(%rip), %rax
	movq	%rax, %rsi
	movq	%rdx, %rdi
	call	_ZStlsISt11char_traitsIcEERSt13basic_ostreamIcT_ES5_PKc@PLT
	movq	_ZSt4endlIcSt11char_traitsIcEERSt13basic_ostreamIT_T0_ES6_@GOTPCREL(%rip), %rdx
	movq	%rdx, %rsi
	movq	%rax, %rdi
	call	_ZNSolsEPFRSoS_E@PLT
	leaq	-1116(%rbp), %rax
	movq	%rax, %rsi
	leaq	_ZSt3cin(%rip), %rax
	movq	%rax, %rdi
	call	_ZNSirsERi@PLT
	movl	-1116(%rbp), %eax
	cmpl	$100, %eax
	jg	.L39
	movl	-1116(%rbp), %eax
	testl	%eax, %eax
	jns	.L40
.L39:
	leaq	.LC25(%rip), %rax
	movq	%rax, %rsi
	leaq	_ZSt4cout(%rip), %rax
	movq	%rax, %rdi
	call	_ZStlsISt11char_traitsIcEERSt13basic_ostreamIcT_ES5_PKc@PLT
	movq	_ZSt4endlIcSt11char_traitsIcEERSt13basic_ostreamIT_T0_ES6_@GOTPCREL(%rip), %rdx
	movq	%rdx, %rsi
	movq	%rax, %rdi
	call	_ZNSolsEPFRSoS_E@PLT
	jmp	.L37
.L40:
	movl	-1116(%rbp), %edx
	movl	-1112(%rbp), %ecx
	movl	-24(%rbp), %eax
	movl	%ecx, %esi
	movl	%eax, %edi
	call	_Z13getConclusioniii
	movl	%eax, -24(%rbp)
	leaq	.LC28(%rip), %rax
	movq	%rax, %rsi
	leaq	_ZSt4cout(%rip), %rax
	movq	%rax, %rdi
	call	_ZStlsISt11char_traitsIcEERSt13basic_ostreamIcT_ES5_PKc@PLT
	movq	%rax, %rdx
	movl	-24(%rbp), %eax
	movl	%eax, %esi
	movq	%rdx, %rdi
	call	_ZNSolsEi@PLT
	movq	%rax, %rdx
	leaq	.LC29(%rip), %rax
	movq	%rax, %rsi
	movq	%rdx, %rdi
	call	_ZStlsISt11char_traitsIcEERSt13basic_ostreamIcT_ES5_PKc@PLT
	movq	_ZSt4endlIcSt11char_traitsIcEERSt13basic_ostreamIT_T0_ES6_@GOTPCREL(%rip), %rdx
	movq	%rdx, %rsi
	movq	%rax, %rdi
	call	_ZNSolsEPFRSoS_E@PLT
	leaq	-1104(%rbp), %rax
	leaq	.LC23(%rip), %rdx
	movq	%rdx, %rsi
	movq	%rax, %rdi
	call	_ZStlsISt11char_traitsIcEERSt13basic_ostreamIcT_ES5_PKc@PLT
	movq	%rax, %rdx
	movl	-32(%rbp), %eax
	addl	$1, %eax
	movl	%eax, %esi
	movq	%rdx, %rdi
	call	_ZNSolsEi@PLT
	movq	%rax, %rdx
	leaq	.LC30(%rip), %rax
	movq	%rax, %rsi
	movq	%rdx, %rdi
	call	_ZStlsISt11char_traitsIcEERSt13basic_ostreamIcT_ES5_PKc@PLT
	movq	%rax, %rdx
	movl	-24(%rbp), %eax
	movl	%eax, %esi
	movq	%rdx, %rdi
	call	_ZNSolsEi@PLT
	movq	_ZSt4endlIcSt11char_traitsIcEERSt13basic_ostreamIT_T0_ES6_@GOTPCREL(%rip), %rdx
	movq	%rdx, %rsi
	movq	%rax, %rdi
	call	_ZNSolsEPFRSoS_E@PLT
	movq	_ZSt4endlIcSt11char_traitsIcEERSt13basic_ostreamIT_T0_ES6_@GOTPCREL(%rip), %rdx
	movq	%rdx, %rsi
	movq	%rax, %rdi
	call	_ZNSolsEPFRSoS_E@PLT
	cmpl	$100, -24(%rbp)
	jne	.L41
	leaq	.LC31(%rip), %rax
	movq	%rax, %rsi
	leaq	_ZSt4cout(%rip), %rax
	movq	%rax, %rdi
	call	_ZStlsISt11char_traitsIcEERSt13basic_ostreamIcT_ES5_PKc@PLT
	movq	_ZSt4endlIcSt11char_traitsIcEERSt13basic_ostreamIT_T0_ES6_@GOTPCREL(%rip), %rdx
	movq	%rdx, %rsi
	movq	%rax, %rdi
	call	_ZNSolsEPFRSoS_E@PLT
	leaq	-1104(%rbp), %rax
	leaq	.LC32(%rip), %rdx
	movq	%rdx, %rsi
	movq	%rax, %rdi
	call	_ZStlsISt11char_traitsIcEERSt13basic_ostreamIcT_ES5_PKc@PLT
	movq	%rax, %rdx
	movl	-28(%rbp), %eax
	addl	$1, %eax
	movl	%eax, %esi
	movq	%rdx, %rdi
	call	_ZNSolsEi@PLT
	movq	%rax, %rdx
	leaq	.LC33(%rip), %rax
	movq	%rax, %rsi
	movq	%rdx, %rdi
	call	_ZStlsISt11char_traitsIcEERSt13basic_ostreamIcT_ES5_PKc@PLT
	movq	%rax, %rdx
	movl	-32(%rbp), %eax
	addl	$1, %eax
	movl	%eax, %esi
	movq	%rdx, %rdi
	call	_ZNSolsEi@PLT
	movq	%rax, %rdx
	leaq	.LC34(%rip), %rax
	movq	%rax, %rsi
	movq	%rdx, %rdi
	call	_ZStlsISt11char_traitsIcEERSt13basic_ostreamIcT_ES5_PKc@PLT
	jmp	.L72
.L41:
	cmpl	$79, -24(%rbp)
	jle	.L43
	leaq	.LC35(%rip), %rax
	movq	%rax, %rsi
	leaq	_ZSt4cout(%rip), %rax
	movq	%rax, %rdi
	call	_ZStlsISt11char_traitsIcEERSt13basic_ostreamIcT_ES5_PKc@PLT
	movq	%rax, %rdx
	movl	-28(%rbp), %eax
	addl	$1, %eax
	movl	%eax, %esi
	movq	%rdx, %rdi
	call	_ZNSolsEi@PLT
	movq	%rax, %rdx
	leaq	.LC33(%rip), %rax
	movq	%rax, %rsi
	movq	%rdx, %rdi
	call	_ZStlsISt11char_traitsIcEERSt13basic_ostreamIcT_ES5_PKc@PLT
	movq	%rax, %rdx
	movl	-32(%rbp), %eax
	addl	$1, %eax
	movl	%eax, %esi
	movq	%rdx, %rdi
	call	_ZNSolsEi@PLT
	movq	%rax, %rdx
	leaq	.LC34(%rip), %rax
	movq	%rax, %rsi
	movq	%rdx, %rdi
	call	_ZStlsISt11char_traitsIcEERSt13basic_ostreamIcT_ES5_PKc@PLT
	leaq	-1104(%rbp), %rax
	leaq	.LC35(%rip), %rdx
	movq	%rdx, %rsi
	movq	%rax, %rdi
	call	_ZStlsISt11char_traitsIcEERSt13basic_ostreamIcT_ES5_PKc@PLT
	movq	%rax, %rdx
	movl	-28(%rbp), %eax
	addl	$1, %eax
	movl	%eax, %esi
	movq	%rdx, %rdi
	call	_ZNSolsEi@PLT
	movq	%rax, %rdx
	leaq	.LC33(%rip), %rax
	movq	%rax, %rsi
	movq	%rdx, %rdi
	call	_ZStlsISt11char_traitsIcEERSt13basic_ostreamIcT_ES5_PKc@PLT
	movq	%rax, %rdx
	movl	-32(%rbp), %eax
	addl	$1, %eax
	movl	%eax, %esi
	movq	%rdx, %rdi
	call	_ZNSolsEi@PLT
	movq	%rax, %rdx
	leaq	.LC34(%rip), %rax
	movq	%rax, %rsi
	movq	%rdx, %rdi
	call	_ZStlsISt11char_traitsIcEERSt13basic_ostreamIcT_ES5_PKc@PLT
	jmp	.L72
.L43:
	cmpl	$49, -24(%rbp)
	jle	.L44
	leaq	.LC36(%rip), %rax
	movq	%rax, %rsi
	leaq	_ZSt4cout(%rip), %rax
	movq	%rax, %rdi
	call	_ZStlsISt11char_traitsIcEERSt13basic_ostreamIcT_ES5_PKc@PLT
	movq	%rax, %rdx
	movl	-28(%rbp), %eax
	addl	$1, %eax
	movl	%eax, %esi
	movq	%rdx, %rdi
	call	_ZNSolsEi@PLT
	movq	%rax, %rdx
	leaq	.LC33(%rip), %rax
	movq	%rax, %rsi
	movq	%rdx, %rdi
	call	_ZStlsISt11char_traitsIcEERSt13basic_ostreamIcT_ES5_PKc@PLT
	movq	%rax, %rdx
	movl	-32(%rbp), %eax
	addl	$1, %eax
	movl	%eax, %esi
	movq	%rdx, %rdi
	call	_ZNSolsEi@PLT
	movq	%rax, %rdx
	leaq	.LC34(%rip), %rax
	movq	%rax, %rsi
	movq	%rdx, %rdi
	call	_ZStlsISt11char_traitsIcEERSt13basic_ostreamIcT_ES5_PKc@PLT
	leaq	-1104(%rbp), %rax
	leaq	.LC36(%rip), %rdx
	movq	%rdx, %rsi
	movq	%rax, %rdi
	call	_ZStlsISt11char_traitsIcEERSt13basic_ostreamIcT_ES5_PKc@PLT
	movq	%rax, %rdx
	movl	-28(%rbp), %eax
	addl	$1, %eax
	movl	%eax, %esi
	movq	%rdx, %rdi
	call	_ZNSolsEi@PLT
	movq	%rax, %rdx
	leaq	.LC33(%rip), %rax
	movq	%rax, %rsi
	movq	%rdx, %rdi
	call	_ZStlsISt11char_traitsIcEERSt13basic_ostreamIcT_ES5_PKc@PLT
	movq	%rax, %rdx
	movl	-32(%rbp), %eax
	addl	$1, %eax
	movl	%eax, %esi
	movq	%rdx, %rdi
	call	_ZNSolsEi@PLT
	movq	%rax, %rdx
	leaq	.LC34(%rip), %rax
	movq	%rax, %rsi
	movq	%rdx, %rdi
	call	_ZStlsISt11char_traitsIcEERSt13basic_ostreamIcT_ES5_PKc@PLT
	jmp	.L72
.L44:
	cmpl	$24, -24(%rbp)
	jle	.L45
	leaq	.LC37(%rip), %rax
	movq	%rax, %rsi
	leaq	_ZSt4cout(%rip), %rax
	movq	%rax, %rdi
	call	_ZStlsISt11char_traitsIcEERSt13basic_ostreamIcT_ES5_PKc@PLT
	movq	%rax, %rdx
	movl	-28(%rbp), %eax
	addl	$1, %eax
	movl	%eax, %esi
	movq	%rdx, %rdi
	call	_ZNSolsEi@PLT
	movq	%rax, %rdx
	leaq	.LC33(%rip), %rax
	movq	%rax, %rsi
	movq	%rdx, %rdi
	call	_ZStlsISt11char_traitsIcEERSt13basic_ostreamIcT_ES5_PKc@PLT
	movq	%rax, %rdx
	movl	-32(%rbp), %eax
	addl	$1, %eax
	movl	%eax, %esi
	movq	%rdx, %rdi
	call	_ZNSolsEi@PLT
	movq	%rax, %rdx
	leaq	.LC34(%rip), %rax
	movq	%rax, %rsi
	movq	%rdx, %rdi
	call	_ZStlsISt11char_traitsIcEERSt13basic_ostreamIcT_ES5_PKc@PLT
	leaq	-1104(%rbp), %rax
	leaq	.LC37(%rip), %rdx
	movq	%rdx, %rsi
	movq	%rax, %rdi
	call	_ZStlsISt11char_traitsIcEERSt13basic_ostreamIcT_ES5_PKc@PLT
	movq	%rax, %rdx
	movl	-28(%rbp), %eax
	addl	$1, %eax
	movl	%eax, %esi
	movq	%rdx, %rdi
	call	_ZNSolsEi@PLT
	movq	%rax, %rdx
	leaq	.LC33(%rip), %rax
	movq	%rax, %rsi
	movq	%rdx, %rdi
	call	_ZStlsISt11char_traitsIcEERSt13basic_ostreamIcT_ES5_PKc@PLT
	movq	%rax, %rdx
	movl	-32(%rbp), %eax
	addl	$1, %eax
	movl	%eax, %esi
	movq	%rdx, %rdi
	call	_ZNSolsEi@PLT
	movq	%rax, %rdx
	leaq	.LC34(%rip), %rax
	movq	%rax, %rsi
	movq	%rdx, %rdi
	call	_ZStlsISt11char_traitsIcEERSt13basic_ostreamIcT_ES5_PKc@PLT
	jmp	.L72
.L45:
	cmpl	$24, -24(%rbp)
	jg	.L46
	cmpl	$0, -24(%rbp)
	jle	.L46
	leaq	.LC38(%rip), %rax
	movq	%rax, %rsi
	leaq	_ZSt4cout(%rip), %rax
	movq	%rax, %rdi
	call	_ZStlsISt11char_traitsIcEERSt13basic_ostreamIcT_ES5_PKc@PLT
	movq	%rax, %rdx
	movl	-28(%rbp), %eax
	addl	$1, %eax
	movl	%eax, %esi
	movq	%rdx, %rdi
	call	_ZNSolsEi@PLT
	movq	%rax, %rdx
	leaq	.LC33(%rip), %rax
	movq	%rax, %rsi
	movq	%rdx, %rdi
	call	_ZStlsISt11char_traitsIcEERSt13basic_ostreamIcT_ES5_PKc@PLT
	movq	%rax, %rdx
	movl	-32(%rbp), %eax
	addl	$1, %eax
	movl	%eax, %esi
	movq	%rdx, %rdi
	call	_ZNSolsEi@PLT
	movq	%rax, %rdx
	leaq	.LC34(%rip), %rax
	movq	%rax, %rsi
	movq	%rdx, %rdi
	call	_ZStlsISt11char_traitsIcEERSt13basic_ostreamIcT_ES5_PKc@PLT
	leaq	-1104(%rbp), %rax
	leaq	.LC38(%rip), %rdx
	movq	%rdx, %rsi
	movq	%rax, %rdi
	call	_ZStlsISt11char_traitsIcEERSt13basic_ostreamIcT_ES5_PKc@PLT
	movq	%rax, %rdx
	movl	-28(%rbp), %eax
	addl	$1, %eax
	movl	%eax, %esi
	movq	%rdx, %rdi
	call	_ZNSolsEi@PLT
	movq	%rax, %rdx
	leaq	.LC33(%rip), %rax
	movq	%rax, %rsi
	movq	%rdx, %rdi
	call	_ZStlsISt11char_traitsIcEERSt13basic_ostreamIcT_ES5_PKc@PLT
	movq	%rax, %rdx
	movl	-32(%rbp), %eax
	addl	$1, %eax
	movl	%eax, %esi
	movq	%rdx, %rdi
	call	_ZNSolsEi@PLT
	movq	%rax, %rdx
	leaq	.LC34(%rip), %rax
	movq	%rax, %rsi
	movq	%rdx, %rdi
	call	_ZStlsISt11char_traitsIcEERSt13basic_ostreamIcT_ES5_PKc@PLT
	jmp	.L69
.L46:
	leaq	.LC39(%rip), %rax
	movq	%rax, %rsi
	leaq	_ZSt4cout(%rip), %rax
	movq	%rax, %rdi
	call	_ZStlsISt11char_traitsIcEERSt13basic_ostreamIcT_ES5_PKc@PLT
	movq	_ZSt4endlIcSt11char_traitsIcEERSt13basic_ostreamIT_T0_ES6_@GOTPCREL(%rip), %rdx
	movq	%rdx, %rsi
	movq	%rax, %rdi
	call	_ZNSolsEPFRSoS_E@PLT
	leaq	-1104(%rbp), %rax
	leaq	.LC40(%rip), %rdx
	movq	%rdx, %rsi
	movq	%rax, %rdi
	call	_ZStlsISt11char_traitsIcEERSt13basic_ostreamIcT_ES5_PKc@PLT
	movq	%rax, %rdx
	movl	-28(%rbp), %eax
	addl	$1, %eax
	movl	%eax, %esi
	movq	%rdx, %rdi
	call	_ZNSolsEi@PLT
	movq	%rax, %rdx
	leaq	.LC33(%rip), %rax
	movq	%rax, %rsi
	movq	%rdx, %rdi
	call	_ZStlsISt11char_traitsIcEERSt13basic_ostreamIcT_ES5_PKc@PLT
	movq	%rax, %rdx
	movl	-32(%rbp), %eax
	addl	$1, %eax
	movl	%eax, %esi
	movq	%rdx, %rdi
	call	_ZNSolsEi@PLT
	movq	%rax, %rdx
	leaq	.LC34(%rip), %rax
	movq	%rax, %rsi
	movq	%rdx, %rdi
	call	_ZStlsISt11char_traitsIcEERSt13basic_ostreamIcT_ES5_PKc@PLT
	jmp	.L72
.L69:
.L72:
	nop
	leaq	.LC41(%rip), %rax
	movq	%rax, %rsi
	leaq	_ZSt4cout(%rip), %rax
	movq	%rax, %rdi
	call	_ZStlsISt11char_traitsIcEERSt13basic_ostreamIcT_ES5_PKc@PLT
	movq	%rax, %rdx
	movl	-28(%rbp), %eax
	addl	$1, %eax
	movl	%eax, %esi
	movq	%rdx, %rdi
	call	_ZNSolsEi@PLT
	movq	%rax, %rdx
	leaq	.LC42(%rip), %rax
	movq	%rax, %rsi
	movq	%rdx, %rdi
	call	_ZStlsISt11char_traitsIcEERSt13basic_ostreamIcT_ES5_PKc@PLT
	movq	%rax, %rdx
	movl	-24(%rbp), %eax
	movl	%eax, %esi
	movq	%rdx, %rdi
	call	_ZNSolsEi@PLT
	movq	_ZSt4endlIcSt11char_traitsIcEERSt13basic_ostreamIT_T0_ES6_@GOTPCREL(%rip), %rdx
	movq	%rdx, %rsi
	movq	%rax, %rdi
	call	_ZNSolsEPFRSoS_E@PLT
	leaq	-1104(%rbp), %rax
	leaq	.LC41(%rip), %rdx
	movq	%rdx, %rsi
	movq	%rax, %rdi
	call	_ZStlsISt11char_traitsIcEERSt13basic_ostreamIcT_ES5_PKc@PLT
	movq	%rax, %rdx
	movl	-28(%rbp), %eax
	addl	$1, %eax
	movl	%eax, %esi
	movq	%rdx, %rdi
	call	_ZNSolsEi@PLT
	movq	%rax, %rdx
	leaq	.LC43(%rip), %rax
	movq	%rax, %rsi
	movq	%rdx, %rdi
	call	_ZStlsISt11char_traitsIcEERSt13basic_ostreamIcT_ES5_PKc@PLT
	movq	%rax, %rdx
	movl	-24(%rbp), %eax
	movl	%eax, %esi
	movq	%rdx, %rdi
	call	_ZNSolsEi@PLT
	movq	%rax, %rdx
	leaq	.LC44(%rip), %rax
	movq	%rax, %rsi
	movq	%rdx, %rdi
	call	_ZStlsISt11char_traitsIcEERSt13basic_ostreamIcT_ES5_PKc@PLT
	movq	_ZSt4endlIcSt11char_traitsIcEERSt13basic_ostreamIT_T0_ES6_@GOTPCREL(%rip), %rdx
	movq	%rdx, %rsi
	movq	%rax, %rdi
	call	_ZNSolsEPFRSoS_E@PLT
	addl	$1, -32(%rbp)
.L35:
	cmpl	$23, -32(%rbp)
	jle	.L38
	leaq	.LC45(%rip), %rax
	movq	%rax, %rsi
	leaq	_ZSt4cout(%rip), %rax
	movq	%rax, %rdi
	call	_ZStlsISt11char_traitsIcEERSt13basic_ostreamIcT_ES5_PKc@PLT
	movq	%rax, %rdx
	movl	-24(%rbp), %eax
	movl	%eax, %esi
	movq	%rdx, %rdi
	call	_ZNSolsEi@PLT
	movq	%rax, %rdx
	leaq	.LC46(%rip), %rax
	movq	%rax, %rsi
	movq	%rdx, %rdi
	call	_ZStlsISt11char_traitsIcEERSt13basic_ostreamIcT_ES5_PKc@PLT
	movq	_ZSt4endlIcSt11char_traitsIcEERSt13basic_ostreamIT_T0_ES6_@GOTPCREL(%rip), %rdx
	movq	%rdx, %rsi
	movq	%rax, %rdi
	call	_ZNSolsEPFRSoS_E@PLT
	leaq	-1104(%rbp), %rax
	leaq	.LC47(%rip), %rdx
	movq	%rdx, %rsi
	movq	%rax, %rdi
	call	_ZStlsISt11char_traitsIcEERSt13basic_ostreamIcT_ES5_PKc@PLT
	movq	%rax, %rdx
	movl	-24(%rbp), %eax
	movl	%eax, %esi
	movq	%rdx, %rdi
	call	_ZNSolsEi@PLT
	movq	%rax, %rdx
	leaq	.LC44(%rip), %rax
	movq	%rax, %rsi
	movq	%rdx, %rdi
	call	_ZStlsISt11char_traitsIcEERSt13basic_ostreamIcT_ES5_PKc@PLT
	movq	_ZSt4endlIcSt11char_traitsIcEERSt13basic_ostreamIT_T0_ES6_@GOTPCREL(%rip), %rdx
	movq	%rdx, %rsi
	movq	%rax, %rdi
	call	_ZNSolsEPFRSoS_E@PLT
	addl	$1, -28(%rbp)
.L34:
	cmpl	$6, -28(%rbp)
	jle	.L47
	nop
.L15:
	jmp	.L9
.L71:
	nop
	leaq	-592(%rbp), %rax
	movq	%rax, %rdi
	call	_ZNSt14basic_ofstreamIcSt11char_traitsIcEE5closeEv@PLT
	leaq	-1104(%rbp), %rax
	movq	%rax, %rdi
	call	_ZNSt14basic_ofstreamIcSt11char_traitsIcEE5closeEv@PLT
.LEHE4:
	leaq	-1168(%rbp), %rax
	movq	%rax, %rdi
	call	_ZNSt7__cxx1112basic_stringIcSt11char_traitsIcESaIcEED1Ev@PLT
	leaq	-1104(%rbp), %rax
	movq	%rax, %rdi
	call	_ZNSt14basic_ofstreamIcSt11char_traitsIcEED1Ev@PLT
	leaq	-592(%rbp), %rax
	movq	%rax, %rdi
	call	_ZNSt14basic_ofstreamIcSt11char_traitsIcEED1Ev@PLT
	jmp	.L70
.L54:
	movq	%rax, %rbx
	leaq	-65(%rbp), %rax
	movq	%rax, %rdi
	call	_ZNSt15__new_allocatorIcED2Ev
	nop
	jmp	.L49
.L55:
	movq	%rax, %rbx
	leaq	-1168(%rbp), %rax
	movq	%rax, %rdi
	call	_ZNSt7__cxx1112basic_stringIcSt11char_traitsIcESaIcEED1Ev@PLT
	jmp	.L49
.L53:
	movq	%rax, %rbx
.L49:
	leaq	-1104(%rbp), %rax
	movq	%rax, %rdi
	call	_ZNSt14basic_ofstreamIcSt11char_traitsIcEED1Ev@PLT
	jmp	.L51
.L52:
	movq	%rax, %rbx
.L51:
	leaq	-592(%rbp), %rax
	movq	%rax, %rdi
	call	_ZNSt14basic_ofstreamIcSt11char_traitsIcEED1Ev@PLT
	movq	%rbx, %rax
	movq	%rax, %rdi
.LEHB5:
	call	_Unwind_Resume@PLT
.LEHE5:
.L70:
	movq	-8(%rbp), %rbx
	leave
	.cfi_def_cfa 7, 8
	ret
	.cfi_endproc
.LFE2143:
	.section	.gcc_except_table,"a",@progbits
.LLSDA2143:
	.byte	0xff
	.byte	0xff
	.byte	0x1
	.uleb128 .LLSDACSE2143-.LLSDACSB2143
.LLSDACSB2143:
	.uleb128 .LEHB0-.LFB2143
	.uleb128 .LEHE0-.LEHB0
	.uleb128 0
	.uleb128 0
	.uleb128 .LEHB1-.LFB2143
	.uleb128 .LEHE1-.LEHB1
	.uleb128 .L52-.LFB2143
	.uleb128 0
	.uleb128 .LEHB2-.LFB2143
	.uleb128 .LEHE2-.LEHB2
	.uleb128 .L53-.LFB2143
	.uleb128 0
	.uleb128 .LEHB3-.LFB2143
	.uleb128 .LEHE3-.LEHB3
	.uleb128 .L54-.LFB2143
	.uleb128 0
	.uleb128 .LEHB4-.LFB2143
	.uleb128 .LEHE4-.LEHB4
	.uleb128 .L55-.LFB2143
	.uleb128 0
	.uleb128 .LEHB5-.LFB2143
	.uleb128 .LEHE5-.LEHB5
	.uleb128 0
	.uleb128 0
.LLSDACSE2143:
	.text
	.size	_Z12mainFunctionv, .-_Z12mainFunctionv
	.globl	main
	.type	main, @function
main:
.LFB2144:
	.cfi_startproc
	pushq	%rbp
	.cfi_def_cfa_offset 16
	.cfi_offset 6, -16
	movq	%rsp, %rbp
	.cfi_def_cfa_register 6
	leaq	_ZSt3cin(%rip), %rax
	movq	%rax, %rdi
	call	_ZNSi6ignoreEv@PLT
	call	_Z12mainFunctionv
	movl	$0, %eax
	popq	%rbp
	.cfi_def_cfa 7, 8
	ret
	.cfi_endproc
.LFE2144:
	.size	main, .-main
	.section	.text._ZN9__gnu_cxx11char_traitsIcE6lengthEPKc,"axG",@progbits,_ZN9__gnu_cxx11char_traitsIcE6lengthEPKc,comdat
	.align 2
	.weak	_ZN9__gnu_cxx11char_traitsIcE6lengthEPKc
	.type	_ZN9__gnu_cxx11char_traitsIcE6lengthEPKc, @function
_ZN9__gnu_cxx11char_traitsIcE6lengthEPKc:
.LFB2145:
	.cfi_startproc
	pushq	%rbp
	.cfi_def_cfa_offset 16
	.cfi_offset 6, -16
	movq	%rsp, %rbp
	.cfi_def_cfa_register 6
	subq	$32, %rsp
	movq	%rdi, -24(%rbp)
	movq	$0, -8(%rbp)
	jmp	.L76
.L77:
	addq	$1, -8(%rbp)
.L76:
	movb	$0, -9(%rbp)
	movq	-24(%rbp), %rdx
	movq	-8(%rbp), %rax
	addq	%rax, %rdx
	leaq	-9(%rbp), %rax
	movq	%rax, %rsi
	movq	%rdx, %rdi
	call	_ZN9__gnu_cxx11char_traitsIcE2eqERKcS3_
	xorl	$1, %eax
	testb	%al, %al
	jne	.L77
	movq	-8(%rbp), %rax
	leave
	.cfi_def_cfa 7, 8
	ret
	.cfi_endproc
.LFE2145:
	.size	_ZN9__gnu_cxx11char_traitsIcE6lengthEPKc, .-_ZN9__gnu_cxx11char_traitsIcE6lengthEPKc
	.section	.text._ZNSt7__cxx1112basic_stringIcSt11char_traitsIcESaIcEE12_Alloc_hiderD2Ev,"axG",@progbits,_ZNSt7__cxx1112basic_stringIcSt11char_traitsIcESaIcEE12_Alloc_hiderD5Ev,comdat
	.align 2
	.weak	_ZNSt7__cxx1112basic_stringIcSt11char_traitsIcESaIcEE12_Alloc_hiderD2Ev
	.type	_ZNSt7__cxx1112basic_stringIcSt11char_traitsIcESaIcEE12_Alloc_hiderD2Ev, @function
_ZNSt7__cxx1112basic_stringIcSt11char_traitsIcESaIcEE12_Alloc_hiderD2Ev:
.LFB2243:
	.cfi_startproc
	pushq	%rbp
	.cfi_def_cfa_offset 16
	.cfi_offset 6, -16
	movq	%rsp, %rbp
	.cfi_def_cfa_register 6
	subq	$32, %rsp
	movq	%rdi, -24(%rbp)
	movq	-24(%rbp), %rax
	movq	%rax, -8(%rbp)
	movq	-8(%rbp), %rax
	movq	%rax, %rdi
	call	_ZNSt15__new_allocatorIcED2Ev
	nop
	nop
	leave
	.cfi_def_cfa 7, 8
	ret
	.cfi_endproc
.LFE2243:
	.size	_ZNSt7__cxx1112basic_stringIcSt11char_traitsIcESaIcEE12_Alloc_hiderD2Ev, .-_ZNSt7__cxx1112basic_stringIcSt11char_traitsIcESaIcEE12_Alloc_hiderD2Ev
	.weak	_ZNSt7__cxx1112basic_stringIcSt11char_traitsIcESaIcEE12_Alloc_hiderD1Ev
	.set	_ZNSt7__cxx1112basic_stringIcSt11char_traitsIcESaIcEE12_Alloc_hiderD1Ev,_ZNSt7__cxx1112basic_stringIcSt11char_traitsIcESaIcEE12_Alloc_hiderD2Ev
	.section	.rodata
	.align 8
.LC48:
	.string	"basic_string: construction from null is not valid"
	.section	.text._ZNSt7__cxx1112basic_stringIcSt11char_traitsIcESaIcEEC2IS3_EEPKcRKS3_,"axG",@progbits,_ZNSt7__cxx1112basic_stringIcSt11char_traitsIcESaIcEEC5IS3_EEPKcRKS3_,comdat
	.align 2
	.weak	_ZNSt7__cxx1112basic_stringIcSt11char_traitsIcESaIcEEC2IS3_EEPKcRKS3_
	.type	_ZNSt7__cxx1112basic_stringIcSt11char_traitsIcESaIcEEC2IS3_EEPKcRKS3_, @function
_ZNSt7__cxx1112basic_stringIcSt11char_traitsIcESaIcEEC2IS3_EEPKcRKS3_:
.LFB2445:
	.cfi_startproc
	.cfi_personality 0x9b,DW.ref.__gxx_personality_v0
	.cfi_lsda 0x1b,.LLSDA2445
	pushq	%rbp
	.cfi_def_cfa_offset 16
	.cfi_offset 6, -16
	movq	%rsp, %rbp
	.cfi_def_cfa_register 6
	pushq	%rbx
	subq	$56, %rsp
	.cfi_offset 3, -24
	movq	%rdi, -40(%rbp)
	movq	%rsi, -48(%rbp)
	movq	%rdx, -56(%rbp)
	movq	-40(%rbp), %rbx
	movq	-40(%rbp), %rax
	movq	%rax, %rdi
	call	_ZNSt7__cxx1112basic_stringIcSt11char_traitsIcESaIcEE13_M_local_dataEv@PLT
	movq	%rax, %rcx
	movq	-56(%rbp), %rax
	movq	%rax, %rdx
	movq	%rcx, %rsi
	movq	%rbx, %rdi
	call	_ZNSt7__cxx1112basic_stringIcSt11char_traitsIcESaIcEE12_Alloc_hiderC1EPcRKS3_@PLT
	cmpq	$0, -48(%rbp)
	jne	.L81
	leaq	.LC48(%rip), %rax
	movq	%rax, %rdi
.LEHB6:
	call	_ZSt19__throw_logic_errorPKc@PLT
.L81:
	movq	-48(%rbp), %rax
	movq	%rax, %rdi
	call	_ZNSt11char_traitsIcE6lengthEPKc
	movq	-48(%rbp), %rdx
	addq	%rdx, %rax
	movq	%rax, -24(%rbp)
	movq	-24(%rbp), %rdx
	movq	-48(%rbp), %rcx
	movq	-40(%rbp), %rax
	movq	%rcx, %rsi
	movq	%rax, %rdi
	call	_ZNSt7__cxx1112basic_stringIcSt11char_traitsIcESaIcEE12_M_constructIPKcEEvT_S8_St20forward_iterator_tag
.LEHE6:
	jmp	.L84
.L83:
	movq	%rax, %rbx
	movq	-40(%rbp), %rax
	movq	%rax, %rdi
	call	_ZNSt7__cxx1112basic_stringIcSt11char_traitsIcESaIcEE12_Alloc_hiderD1Ev
	movq	%rbx, %rax
	movq	%rax, %rdi
.LEHB7:
	call	_Unwind_Resume@PLT
.LEHE7:
.L84:
	movq	-8(%rbp), %rbx
	leave
	.cfi_def_cfa 7, 8
	ret
	.cfi_endproc
.LFE2445:
	.section	.gcc_except_table
.LLSDA2445:
	.byte	0xff
	.byte	0xff
	.byte	0x1
	.uleb128 .LLSDACSE2445-.LLSDACSB2445
.LLSDACSB2445:
	.uleb128 .LEHB6-.LFB2445
	.uleb128 .LEHE6-.LEHB6
	.uleb128 .L83-.LFB2445
	.uleb128 0
	.uleb128 .LEHB7-.LFB2445
	.uleb128 .LEHE7-.LEHB7
	.uleb128 0
	.uleb128 0
.LLSDACSE2445:
	.section	.text._ZNSt7__cxx1112basic_stringIcSt11char_traitsIcESaIcEEC2IS3_EEPKcRKS3_,"axG",@progbits,_ZNSt7__cxx1112basic_stringIcSt11char_traitsIcESaIcEEC5IS3_EEPKcRKS3_,comdat
	.size	_ZNSt7__cxx1112basic_stringIcSt11char_traitsIcESaIcEEC2IS3_EEPKcRKS3_, .-_ZNSt7__cxx1112basic_stringIcSt11char_traitsIcESaIcEEC2IS3_EEPKcRKS3_
	.weak	_ZNSt7__cxx1112basic_stringIcSt11char_traitsIcESaIcEEC1IS3_EEPKcRKS3_
	.set	_ZNSt7__cxx1112basic_stringIcSt11char_traitsIcESaIcEEC1IS3_EEPKcRKS3_,_ZNSt7__cxx1112basic_stringIcSt11char_traitsIcESaIcEEC2IS3_EEPKcRKS3_
	.section	.text._ZN9__gnu_cxx11char_traitsIcE2eqERKcS3_,"axG",@progbits,_ZN9__gnu_cxx11char_traitsIcE2eqERKcS3_,comdat
	.weak	_ZN9__gnu_cxx11char_traitsIcE2eqERKcS3_
	.type	_ZN9__gnu_cxx11char_traitsIcE2eqERKcS3_, @function
_ZN9__gnu_cxx11char_traitsIcE2eqERKcS3_:
.LFB2455:
	.cfi_startproc
	pushq	%rbp
	.cfi_def_cfa_offset 16
	.cfi_offset 6, -16
	movq	%rsp, %rbp
	.cfi_def_cfa_register 6
	movq	%rdi, -8(%rbp)
	movq	%rsi, -16(%rbp)
	movq	-8(%rbp), %rax
	movzbl	(%rax), %edx
	movq	-16(%rbp), %rax
	movzbl	(%rax), %eax
	cmpb	%al, %dl
	sete	%al
	popq	%rbp
	.cfi_def_cfa 7, 8
	ret
	.cfi_endproc
.LFE2455:
	.size	_ZN9__gnu_cxx11char_traitsIcE2eqERKcS3_, .-_ZN9__gnu_cxx11char_traitsIcE2eqERKcS3_
	.section	.text._ZNSt15__new_allocatorIcED2Ev,"axG",@progbits,_ZNSt15__new_allocatorIcED5Ev,comdat
	.align 2
	.weak	_ZNSt15__new_allocatorIcED2Ev
	.type	_ZNSt15__new_allocatorIcED2Ev, @function
_ZNSt15__new_allocatorIcED2Ev:
.LFB2509:
	.cfi_startproc
	pushq	%rbp
	.cfi_def_cfa_offset 16
	.cfi_offset 6, -16
	movq	%rsp, %rbp
	.cfi_def_cfa_register 6
	movq	%rdi, -8(%rbp)
	nop
	popq	%rbp
	.cfi_def_cfa 7, 8
	ret
	.cfi_endproc
.LFE2509:
	.size	_ZNSt15__new_allocatorIcED2Ev, .-_ZNSt15__new_allocatorIcED2Ev
	.weak	_ZNSt15__new_allocatorIcED1Ev
	.set	_ZNSt15__new_allocatorIcED1Ev,_ZNSt15__new_allocatorIcED2Ev
	.section	.text._ZZNSt7__cxx1112basic_stringIcSt11char_traitsIcESaIcEE12_M_constructIPKcEEvT_S8_St20forward_iterator_tagEN6_GuardC2EPS4_,"axG",@progbits,_ZZNSt7__cxx1112basic_stringIcSt11char_traitsIcESaIcEE12_M_constructIPKcEEvT_S8_St20forward_iterator_tagEN6_GuardC5EPS4_,comdat
	.align 2
	.weak	_ZZNSt7__cxx1112basic_stringIcSt11char_traitsIcESaIcEE12_M_constructIPKcEEvT_S8_St20forward_iterator_tagEN6_GuardC2EPS4_
	.type	_ZZNSt7__cxx1112basic_stringIcSt11char_traitsIcESaIcEE12_M_constructIPKcEEvT_S8_St20forward_iterator_tagEN6_GuardC2EPS4_, @function
_ZZNSt7__cxx1112basic_stringIcSt11char_traitsIcESaIcEE12_M_constructIPKcEEvT_S8_St20forward_iterator_tagEN6_GuardC2EPS4_:
.LFB2516:
	.cfi_startproc
	pushq	%rbp
	.cfi_def_cfa_offset 16
	.cfi_offset 6, -16
	movq	%rsp, %rbp
	.cfi_def_cfa_register 6
	movq	%rdi, -8(%rbp)
	movq	%rsi, -16(%rbp)
	movq	-8(%rbp), %rax
	movq	-16(%rbp), %rdx
	movq	%rdx, (%rax)
	nop
	popq	%rbp
	.cfi_def_cfa 7, 8
	ret
	.cfi_endproc
.LFE2516:
	.size	_ZZNSt7__cxx1112basic_stringIcSt11char_traitsIcESaIcEE12_M_constructIPKcEEvT_S8_St20forward_iterator_tagEN6_GuardC2EPS4_, .-_ZZNSt7__cxx1112basic_stringIcSt11char_traitsIcESaIcEE12_M_constructIPKcEEvT_S8_St20forward_iterator_tagEN6_GuardC2EPS4_
	.weak	_ZZNSt7__cxx1112basic_stringIcSt11char_traitsIcESaIcEE12_M_constructIPKcEEvT_S8_St20forward_iterator_tagEN6_GuardC1EPS4_
	.set	_ZZNSt7__cxx1112basic_stringIcSt11char_traitsIcESaIcEE12_M_constructIPKcEEvT_S8_St20forward_iterator_tagEN6_GuardC1EPS4_,_ZZNSt7__cxx1112basic_stringIcSt11char_traitsIcESaIcEE12_M_constructIPKcEEvT_S8_St20forward_iterator_tagEN6_GuardC2EPS4_
	.section	.text._ZZNSt7__cxx1112basic_stringIcSt11char_traitsIcESaIcEE12_M_constructIPKcEEvT_S8_St20forward_iterator_tagEN6_GuardD2Ev,"axG",@progbits,_ZZNSt7__cxx1112basic_stringIcSt11char_traitsIcESaIcEE12_M_constructIPKcEEvT_S8_St20forward_iterator_tagEN6_GuardD5Ev,comdat
	.align 2
	.weak	_ZZNSt7__cxx1112basic_stringIcSt11char_traitsIcESaIcEE12_M_constructIPKcEEvT_S8_St20forward_iterator_tagEN6_GuardD2Ev
	.type	_ZZNSt7__cxx1112basic_stringIcSt11char_traitsIcESaIcEE12_M_constructIPKcEEvT_S8_St20forward_iterator_tagEN6_GuardD2Ev, @function
_ZZNSt7__cxx1112basic_stringIcSt11char_traitsIcESaIcEE12_M_constructIPKcEEvT_S8_St20forward_iterator_tagEN6_GuardD2Ev:
.LFB2519:
	.cfi_startproc
	.cfi_personality 0x9b,DW.ref.__gxx_personality_v0
	.cfi_lsda 0x1b,.LLSDA2519
	pushq	%rbp
	.cfi_def_cfa_offset 16
	.cfi_offset 6, -16
	movq	%rsp, %rbp
	.cfi_def_cfa_register 6
	subq	$16, %rsp
	movq	%rdi, -8(%rbp)
	movq	-8(%rbp), %rax
	movq	(%rax), %rax
	testq	%rax, %rax
	je	.L91
	movq	-8(%rbp), %rax
	movq	(%rax), %rax
	movq	%rax, %rdi
	call	_ZNSt7__cxx1112basic_stringIcSt11char_traitsIcESaIcEE10_M_disposeEv@PLT
.L91:
	nop
	leave
	.cfi_def_cfa 7, 8
	ret
	.cfi_endproc
.LFE2519:
	.section	.gcc_except_table
.LLSDA2519:
	.byte	0xff
	.byte	0xff
	.byte	0x1
	.uleb128 .LLSDACSE2519-.LLSDACSB2519
.LLSDACSB2519:
.LLSDACSE2519:
	.section	.text._ZZNSt7__cxx1112basic_stringIcSt11char_traitsIcESaIcEE12_M_constructIPKcEEvT_S8_St20forward_iterator_tagEN6_GuardD2Ev,"axG",@progbits,_ZZNSt7__cxx1112basic_stringIcSt11char_traitsIcESaIcEE12_M_constructIPKcEEvT_S8_St20forward_iterator_tagEN6_GuardD5Ev,comdat
	.size	_ZZNSt7__cxx1112basic_stringIcSt11char_traitsIcESaIcEE12_M_constructIPKcEEvT_S8_St20forward_iterator_tagEN6_GuardD2Ev, .-_ZZNSt7__cxx1112basic_stringIcSt11char_traitsIcESaIcEE12_M_constructIPKcEEvT_S8_St20forward_iterator_tagEN6_GuardD2Ev
	.weak	_ZZNSt7__cxx1112basic_stringIcSt11char_traitsIcESaIcEE12_M_constructIPKcEEvT_S8_St20forward_iterator_tagEN6_GuardD1Ev
	.set	_ZZNSt7__cxx1112basic_stringIcSt11char_traitsIcESaIcEE12_M_constructIPKcEEvT_S8_St20forward_iterator_tagEN6_GuardD1Ev,_ZZNSt7__cxx1112basic_stringIcSt11char_traitsIcESaIcEE12_M_constructIPKcEEvT_S8_St20forward_iterator_tagEN6_GuardD2Ev
	.section	.text._ZNSt7__cxx1112basic_stringIcSt11char_traitsIcESaIcEE12_M_constructIPKcEEvT_S8_St20forward_iterator_tag,"axG",@progbits,_ZNSt7__cxx1112basic_stringIcSt11char_traitsIcESaIcEE12_M_constructIPKcEEvT_S8_St20forward_iterator_tag,comdat
	.align 2
	.weak	_ZNSt7__cxx1112basic_stringIcSt11char_traitsIcESaIcEE12_M_constructIPKcEEvT_S8_St20forward_iterator_tag
	.type	_ZNSt7__cxx1112basic_stringIcSt11char_traitsIcESaIcEE12_M_constructIPKcEEvT_S8_St20forward_iterator_tag, @function
_ZNSt7__cxx1112basic_stringIcSt11char_traitsIcESaIcEE12_M_constructIPKcEEvT_S8_St20forward_iterator_tag:
.LFB2514:
	.cfi_startproc
	.cfi_personality 0x9b,DW.ref.__gxx_personality_v0
	.cfi_lsda 0x1b,.LLSDA2514
	pushq	%rbp
	.cfi_def_cfa_offset 16
	.cfi_offset 6, -16
	movq	%rsp, %rbp
	.cfi_def_cfa_register 6
	pushq	%rbx
	subq	$104, %rsp
	.cfi_offset 3, -24
	movq	%rdi, -88(%rbp)
	movq	%rsi, -96(%rbp)
	movq	%rdx, -104(%rbp)
	movq	-96(%rbp), %rax
	movq	%rax, -72(%rbp)
	movq	-104(%rbp), %rax
	movq	%rax, -24(%rbp)
	nop
	movq	-72(%rbp), %rax
	movq	%rax, -32(%rbp)
	movq	-24(%rbp), %rax
	movq	%rax, -40(%rbp)
	movq	-40(%rbp), %rax
	subq	-32(%rbp), %rax
	nop
	movq	%rax, -56(%rbp)
	movq	-56(%rbp), %rax
	cmpq	$15, %rax
	jbe	.L96
	leaq	-56(%rbp), %rcx
	movq	-88(%rbp), %rax
	movl	$0, %edx
	movq	%rcx, %rsi
	movq	%rax, %rdi
.LEHB8:
	call	_ZNSt7__cxx1112basic_stringIcSt11char_traitsIcESaIcEE9_M_createERmm@PLT
.LEHE8:
	movq	%rax, %rdx
	movq	-88(%rbp), %rax
	movq	%rdx, %rsi
	movq	%rax, %rdi
	call	_ZNSt7__cxx1112basic_stringIcSt11char_traitsIcESaIcEE7_M_dataEPc@PLT
	movq	-56(%rbp), %rdx
	movq	-88(%rbp), %rax
	movq	%rdx, %rsi
	movq	%rax, %rdi
	call	_ZNSt7__cxx1112basic_stringIcSt11char_traitsIcESaIcEE11_M_capacityEm@PLT
	jmp	.L97
.L96:
	movq	-88(%rbp), %rax
	movq	%rax, -48(%rbp)
	nop
.L97:
	movq	-88(%rbp), %rdx
	leaq	-64(%rbp), %rax
	movq	%rdx, %rsi
	movq	%rax, %rdi
	call	_ZZNSt7__cxx1112basic_stringIcSt11char_traitsIcESaIcEE12_M_constructIPKcEEvT_S8_St20forward_iterator_tagEN6_GuardC1EPS4_
	movq	-88(%rbp), %rax
	movq	%rax, %rdi
	call	_ZNKSt7__cxx1112basic_stringIcSt11char_traitsIcESaIcEE7_M_dataEv@PLT
	movq	%rax, %rcx
	movq	-104(%rbp), %rdx
	movq	-96(%rbp), %rax
	movq	%rax, %rsi
	movq	%rcx, %rdi
	call	_ZNSt7__cxx1112basic_stringIcSt11char_traitsIcESaIcEE13_S_copy_charsEPcPKcS7_@PLT
	movq	$0, -64(%rbp)
	movq	-56(%rbp), %rdx
	movq	-88(%rbp), %rax
	movq	%rdx, %rsi
	movq	%rax, %rdi
.LEHB9:
	call	_ZNSt7__cxx1112basic_stringIcSt11char_traitsIcESaIcEE13_M_set_lengthEm@PLT
.LEHE9:
	leaq	-64(%rbp), %rax
	movq	%rax, %rdi
	call	_ZZNSt7__cxx1112basic_stringIcSt11char_traitsIcESaIcEE12_M_constructIPKcEEvT_S8_St20forward_iterator_tagEN6_GuardD1Ev
	jmp	.L100
.L99:
	movq	%rax, %rbx
	leaq	-64(%rbp), %rax
	movq	%rax, %rdi
	call	_ZZNSt7__cxx1112basic_stringIcSt11char_traitsIcESaIcEE12_M_constructIPKcEEvT_S8_St20forward_iterator_tagEN6_GuardD1Ev
	movq	%rbx, %rax
	movq	%rax, %rdi
.LEHB10:
	call	_Unwind_Resume@PLT
.LEHE10:
.L100:
	movq	-8(%rbp), %rbx
	leave
	.cfi_def_cfa 7, 8
	ret
	.cfi_endproc
.LFE2514:
	.section	.gcc_except_table
.LLSDA2514:
	.byte	0xff
	.byte	0xff
	.byte	0x1
	.uleb128 .LLSDACSE2514-.LLSDACSB2514
.LLSDACSB2514:
	.uleb128 .LEHB8-.LFB2514
	.uleb128 .LEHE8-.LEHB8
	.uleb128 0
	.uleb128 0
	.uleb128 .LEHB9-.LFB2514
	.uleb128 .LEHE9-.LEHB9
	.uleb128 .L99-.LFB2514
	.uleb128 0
	.uleb128 .LEHB10-.LFB2514
	.uleb128 .LEHE10-.LEHB10
	.uleb128 0
	.uleb128 0
.LLSDACSE2514:
	.section	.text._ZNSt7__cxx1112basic_stringIcSt11char_traitsIcESaIcEE12_M_constructIPKcEEvT_S8_St20forward_iterator_tag,"axG",@progbits,_ZNSt7__cxx1112basic_stringIcSt11char_traitsIcESaIcEE12_M_constructIPKcEEvT_S8_St20forward_iterator_tag,comdat
	.size	_ZNSt7__cxx1112basic_stringIcSt11char_traitsIcESaIcEE12_M_constructIPKcEEvT_S8_St20forward_iterator_tag, .-_ZNSt7__cxx1112basic_stringIcSt11char_traitsIcESaIcEE12_M_constructIPKcEEvT_S8_St20forward_iterator_tag
	.section	.rodata
	.type	_ZNSt8__detail30__integer_to_chars_is_unsignedIjEE, @object
	.size	_ZNSt8__detail30__integer_to_chars_is_unsignedIjEE, 1
_ZNSt8__detail30__integer_to_chars_is_unsignedIjEE:
	.byte	1
	.type	_ZNSt8__detail30__integer_to_chars_is_unsignedImEE, @object
	.size	_ZNSt8__detail30__integer_to_chars_is_unsignedImEE, 1
_ZNSt8__detail30__integer_to_chars_is_unsignedImEE:
	.byte	1
	.type	_ZNSt8__detail30__integer_to_chars_is_unsignedIyEE, @object
	.size	_ZNSt8__detail30__integer_to_chars_is_unsignedIyEE, 1
_ZNSt8__detail30__integer_to_chars_is_unsignedIyEE:
	.byte	1
	.align 4
.LC12:
	.long	1065353216
	.align 4
.LC13:
	.long	1073741824
	.align 4
.LC14:
	.long	1077936128
	.align 4
.LC15:
	.long	1082130432
	.align 4
.LC16:
	.long	1084227584
	.hidden	DW.ref.__gxx_personality_v0
	.weak	DW.ref.__gxx_personality_v0
	.section	.data.rel.local.DW.ref.__gxx_personality_v0,"awG",@progbits,DW.ref.__gxx_personality_v0,comdat
	.align 8
	.type	DW.ref.__gxx_personality_v0, @object
	.size	DW.ref.__gxx_personality_v0, 8
DW.ref.__gxx_personality_v0:
	.quad	__gxx_personality_v0
	.globl	__gxx_personality_v0
	.ident	"GCC: (Debian 14.2.0-19) 14.2.0"
	.section	.note.GNU-stack,"",@progbits
